target datalayout = "e-m:e-p270:32:32-p271:32:32-p272:64:64-i64:64-i128:128-f80:128-n8:16:32:64-S128"
target triple = "x86_64-pc-linux-gnu"

@.str = private unnamed_addr constant [1 x i8] zeroinitializer, align 1

; Function Attrs: inlinehint mustprogress nounwind uwtable
define internal noundef i64 @_ZL5ImMinImET_S0_S0_(i64 noundef %0, i64 noundef %1) #2 {
  %3 = alloca i64, align 8
  %4 = alloca i64, align 8
  store i64 %0, ptr %3, align 8, !tbaa !245
  store i64 %1, ptr %4, align 8, !tbaa !245
  %5 = load i64, ptr %3, align 8, !tbaa !245
  %6 = load i64, ptr %4, align 8, !tbaa !245
  %7 = icmp ult i64 %5, %6
  br i1 %7, label %8, label %10

8:                                                ; preds = %2
  %9 = load i64, ptr %3, align 8, !tbaa !245
  br label %12

10:                                               ; preds = %2
  %11 = load i64, ptr %4, align 8, !tbaa !245
  br label %12

12:                                               ; preds = %10, %8
  %13 = phi i64 [ %9, %8 ], [ %11, %10 ]
  ret i64 %13
}

; Function Attrs: mustprogress nounwind uwtable
define noundef ptr @_Z20ImParseFormatFindEndPKc(ptr noundef %0) #4 {
  %2 = alloca ptr, align 8
  %3 = alloca ptr, align 8
  %4 = alloca i32, align 4
  %5 = alloca i32, align 4
  %6 = alloca i8, align 1
  %7 = alloca i32, align 4
  store ptr %0, ptr %3, align 8, !tbaa !3
  %8 = load ptr, ptr %3, align 8, !tbaa !3
  %9 = getelementptr inbounds i8, ptr %8, i64 0
  %10 = load i8, ptr %9, align 1, !tbaa !382
  %11 = sext i8 %10 to i32
  %12 = icmp ne i32 %11, 37
  br i1 %12, label %13, label %15

13:                                               ; preds = %1
  %14 = load ptr, ptr %3, align 8, !tbaa !3
  store ptr %14, ptr %2, align 8
  br label %67

15:                                               ; preds = %1
  call void @llvm.lifetime.start.p0(i64 4, ptr %4) #17
  store i32 2304, ptr %4, align 4, !tbaa !8
  call void @llvm.lifetime.start.p0(i64 4, ptr %5) #17
  store i32 38275712, ptr %5, align 4, !tbaa !8
  call void @llvm.lifetime.start.p0(i64 1, ptr %6) #17
  br label %16

16:                                               ; preds = %59, %15
  %17 = load ptr, ptr %3, align 8, !tbaa !3
  %18 = load i8, ptr %17, align 1, !tbaa !382
  store i8 %18, ptr %6, align 1, !tbaa !382
  %19 = sext i8 %18 to i32
  %20 = icmp ne i32 %19, 0
  br i1 %20, label %22, label %21

21:                                               ; preds = %16
  store i32 2, ptr %7, align 4
  br label %62

22:                                               ; preds = %16
  %23 = load i8, ptr %6, align 1, !tbaa !382
  %24 = sext i8 %23 to i32
  %25 = icmp sge i32 %24, 65
  br i1 %25, label %26, label %40

26:                                               ; preds = %22
  %27 = load i8, ptr %6, align 1, !tbaa !382
  %28 = sext i8 %27 to i32
  %29 = icmp sle i32 %28, 90
  br i1 %29, label %30, label %40

30:                                               ; preds = %26
  %31 = load i8, ptr %6, align 1, !tbaa !382
  %32 = sext i8 %31 to i32
  %33 = sub nsw i32 %32, 65
  %34 = shl i32 1, %33
  %35 = and i32 %34, 2304
  %36 = icmp eq i32 %35, 0
  br i1 %36, label %37, label %40

37:                                               ; preds = %30
  %38 = load ptr, ptr %3, align 8, !tbaa !3
  %39 = getelementptr inbounds i8, ptr %38, i64 1
  store ptr %39, ptr %2, align 8
  store i32 1, ptr %7, align 4
  br label %62

40:                                               ; preds = %30, %26, %22
  %41 = load i8, ptr %6, align 1, !tbaa !382
  %42 = sext i8 %41 to i32
  %43 = icmp sge i32 %42, 97
  br i1 %43, label %44, label %58

44:                                               ; preds = %40
  %45 = load i8, ptr %6, align 1, !tbaa !382
  %46 = sext i8 %45 to i32
  %47 = icmp sle i32 %46, 122
  br i1 %47, label %48, label %58

48:                                               ; preds = %44
  %49 = load i8, ptr %6, align 1, !tbaa !382
  %50 = sext i8 %49 to i32
  %51 = sub nsw i32 %50, 97
  %52 = shl i32 1, %51
  %53 = and i32 %52, 38275712
  %54 = icmp eq i32 %53, 0
  br i1 %54, label %55, label %58

55:                                               ; preds = %48
  %56 = load ptr, ptr %3, align 8, !tbaa !3
  %57 = getelementptr inbounds i8, ptr %56, i64 1
  store ptr %57, ptr %2, align 8
  store i32 1, ptr %7, align 4
  br label %62

58:                                               ; preds = %48, %44, %40
  br label %59

59:                                               ; preds = %58
  %60 = load ptr, ptr %3, align 8, !tbaa !3
  %61 = getelementptr inbounds nuw i8, ptr %60, i32 1
  store ptr %61, ptr %3, align 8, !tbaa !3
  br label %16, !llvm.loop !420

62:                                               ; preds = %55, %37, %21
  call void @llvm.lifetime.end.p0(i64 1, ptr %6) #17
  %63 = load i32, ptr %7, align 4
  switch i32 %63, label %66 [
    i32 2, label %64
  ]

64:                                               ; preds = %62
  %65 = load ptr, ptr %3, align 8, !tbaa !3
  store ptr %65, ptr %2, align 8
  store i32 1, ptr %7, align 4
  br label %66

66:                                               ; preds = %64, %62
  call void @llvm.lifetime.end.p0(i64 4, ptr %5) #17
  call void @llvm.lifetime.end.p0(i64 4, ptr %4) #17
  br label %67

67:                                               ; preds = %66, %13
  %68 = load ptr, ptr %2, align 8
  ret ptr %68
}

; Function Attrs: mustprogress nounwind uwtable
define noundef ptr @_Z22ImParseFormatFindStartPKc(ptr noundef %0) #4 {
  %2 = alloca ptr, align 8
  %3 = alloca ptr, align 8
  %4 = alloca i8, align 1
  %5 = alloca i32, align 4
  store ptr %0, ptr %3, align 8, !tbaa !3
  br label %6

6:                                                ; preds = %38, %1
  call void @llvm.lifetime.start.p0(i64 1, ptr %4) #17
  %7 = load ptr, ptr %3, align 8, !tbaa !3
  %8 = getelementptr inbounds i8, ptr %7, i64 0
  %9 = load i8, ptr %8, align 1, !tbaa !382
  store i8 %9, ptr %4, align 1, !tbaa !382
  %10 = load i8, ptr %4, align 1, !tbaa !382
  %11 = icmp ne i8 %10, 0
  br i1 %11, label %13, label %12

12:                                               ; preds = %6
  store i32 3, ptr %5, align 4
  br label %36

13:                                               ; preds = %6
  %14 = load i8, ptr %4, align 1, !tbaa !382
  %15 = sext i8 %14 to i32
  %16 = icmp eq i32 %15, 37
  br i1 %16, label %17, label %25

17:                                               ; preds = %13
  %18 = load ptr, ptr %3, align 8, !tbaa !3
  %19 = getelementptr inbounds i8, ptr %18, i64 1
  %20 = load i8, ptr %19, align 1, !tbaa !382
  %21 = sext i8 %20 to i32
  %22 = icmp ne i32 %21, 37
  br i1 %22, label %23, label %25

23:                                               ; preds = %17
  %24 = load ptr, ptr %3, align 8, !tbaa !3
  store ptr %24, ptr %2, align 8
  store i32 1, ptr %5, align 4
  br label %36

25:                                               ; preds = %17, %13
  %26 = load i8, ptr %4, align 1, !tbaa !382
  %27 = sext i8 %26 to i32
  %28 = icmp eq i32 %27, 37
  br i1 %28, label %29, label %32

29:                                               ; preds = %25
  %30 = load ptr, ptr %3, align 8, !tbaa !3
  %31 = getelementptr inbounds nuw i8, ptr %30, i32 1
  store ptr %31, ptr %3, align 8, !tbaa !3
  br label %32

32:                                               ; preds = %29, %25
  br label %33

33:                                               ; preds = %32
  %34 = load ptr, ptr %3, align 8, !tbaa !3
  %35 = getelementptr inbounds nuw i8, ptr %34, i32 1
  store ptr %35, ptr %3, align 8, !tbaa !3
  store i32 0, ptr %5, align 4
  br label %36

36:                                               ; preds = %33, %23, %12
  call void @llvm.lifetime.end.p0(i64 1, ptr %4) #17
  %37 = load i32, ptr %5, align 4
  switch i32 %37, label %43 [
    i32 0, label %38
    i32 3, label %39
    i32 1, label %41
  ]

38:                                               ; preds = %36
  br label %6, !llvm.loop !419

39:                                               ; preds = %36
  %40 = load ptr, ptr %3, align 8, !tbaa !3
  store ptr %40, ptr %2, align 8
  br label %41

41:                                               ; preds = %39, %36
  %42 = load ptr, ptr %2, align 8
  ret ptr %42

43:                                               ; preds = %36
  unreachable
}

; Function Attrs: mustprogress uwtable
define noundef ptr @_Z28ImParseFormatTrimDecorationsPKcPcm(ptr noundef %0, ptr noundef %1, i64 noundef %2) #9 {
  %4 = alloca ptr, align 8
  %5 = alloca ptr, align 8
  %6 = alloca ptr, align 8
  %7 = alloca i64, align 8
  %8 = alloca ptr, align 8
  %9 = alloca i32, align 4
  %10 = alloca ptr, align 8
  store ptr %0, ptr %5, align 8, !tbaa !3
  store ptr %1, ptr %6, align 8, !tbaa !3
  store i64 %2, ptr %7, align 8, !tbaa !245
  call void @llvm.lifetime.start.p0(i64 8, ptr %8) #17
  %11 = load ptr, ptr %5, align 8, !tbaa !3
  %12 = call noundef ptr @_Z22ImParseFormatFindStartPKc(ptr noundef %11)
  store ptr %12, ptr %8, align 8, !tbaa !3
  %13 = load ptr, ptr %8, align 8, !tbaa !3
  %14 = getelementptr inbounds i8, ptr %13, i64 0
  %15 = load i8, ptr %14, align 1, !tbaa !382
  %16 = sext i8 %15 to i32
  %17 = icmp ne i32 %16, 37
  br i1 %17, label %18, label %19

18:                                               ; preds = %3
  store ptr @.str, ptr %4, align 8
  store i32 1, ptr %9, align 4
  br label %42

19:                                               ; preds = %3
  call void @llvm.lifetime.start.p0(i64 8, ptr %10) #17
  %20 = load ptr, ptr %8, align 8, !tbaa !3
  %21 = call noundef ptr @_Z20ImParseFormatFindEndPKc(ptr noundef %20)
  store ptr %21, ptr %10, align 8, !tbaa !3
  %22 = load ptr, ptr %10, align 8, !tbaa !3
  %23 = getelementptr inbounds i8, ptr %22, i64 0
  %24 = load i8, ptr %23, align 1, !tbaa !382
  %25 = sext i8 %24 to i32
  %26 = icmp eq i32 %25, 0
  br i1 %26, label %27, label %29

27:                                               ; preds = %19
  %28 = load ptr, ptr %8, align 8, !tbaa !3
  store ptr %28, ptr %4, align 8
  store i32 1, ptr %9, align 4
  br label %41

29:                                               ; preds = %19
  %30 = load ptr, ptr %6, align 8, !tbaa !3
  %31 = load ptr, ptr %8, align 8, !tbaa !3
  %32 = load ptr, ptr %10, align 8, !tbaa !3
  %33 = load ptr, ptr %8, align 8, !tbaa !3
  %34 = ptrtoint ptr %32 to i64
  %35 = ptrtoint ptr %33 to i64
  %36 = sub i64 %34, %35
  %37 = add i64 %36, 1
  %38 = load i64, ptr %7, align 8, !tbaa !245
  %39 = call noundef i64 @_ZL5ImMinImET_S0_S0_(i64 noundef %37, i64 noundef %38)
  call void @_Z9ImStrncpyPcPKcm(ptr noundef %30, ptr noundef %31, i64 noundef %39)
  %40 = load ptr, ptr %6, align 8, !tbaa !3
  store ptr %40, ptr %4, align 8
  store i32 1, ptr %9, align 4
  br label %41

41:                                               ; preds = %29, %27
  call void @llvm.lifetime.end.p0(i64 8, ptr %10) #17
  br label %42

42:                                               ; preds = %41, %18
  call void @llvm.lifetime.end.p0(i64 8, ptr %8) #17
  %43 = load ptr, ptr %4, align 8
  ret ptr %43
}