; Function Attrs: mustprogress uwtable
define noundef ptr @_Z28ImParseFormatTrimDecorationsPKcPcm(ptr noundef %0, ptr noundef %1, i64 noundef %2) local_unnamed_addr #6 {
  %4 = load i8, ptr %0, align 1, !tbaa !341
  %.not24.i = icmp eq i8 %4, 0
  br i1 %.not24.i, label %_Z22ImParseFormatFindStartPKc.exit.thread, label %.lr.ph.i

.lr.ph.i:                                         ; preds = %3, %9
  %.pr = phi i8 [ %11, %9 ], [ %4, %3 ]
  %.01125.i = phi ptr [ %10, %9 ], [ %0, %3 ]
  %5 = icmp eq i8 %.pr, 37
  br i1 %5, label %6, label %9

6:                                                ; preds = %.lr.ph.i
  %7 = getelementptr inbounds nuw i8, ptr %.01125.i, i64 1
  %8 = load i8, ptr %7, align 1, !tbaa !341
  %.not15.i = icmp eq i8 %8, 37
  br i1 %.not15.i, label %9, label %.preheader.i

9:                                                ; preds = %6, %.lr.ph.i
  %spec.select.idx.i = zext i1 %5 to i64
  %spec.select.i = getelementptr inbounds nuw i8, ptr %.01125.i, i64 %spec.select.idx.i
  %10 = getelementptr inbounds nuw i8, ptr %spec.select.i, i64 1
  %11 = load i8, ptr %10, align 1, !tbaa !341
  %.not.i = icmp eq i8 %11, 0
  br i1 %.not.i, label %_Z22ImParseFormatFindStartPKc.exit.thread, label %.lr.ph.i

.preheader.i:                                     ; preds = %6, %.thread.i
  %12 = phi i32 [ %28, %.thread.i ], [ 37, %6 ]
  %.02026.i = phi ptr [ %27, %.thread.i ], [ %.01125.i, %6 ]
  %13 = phi i8 [ %.pr.i, %.thread.i ], [ 37, %6 ]
  %14 = add i8 %13, -65
  %or.cond.i = icmp ult i8 %14, 26
  br i1 %or.cond.i, label %15, label %20

15:                                               ; preds = %.preheader.i
  %16 = add nsw i32 %12, -65
  %17 = shl nuw nsw i32 1, %16
  %18 = and i32 %17, 2304
  %19 = icmp eq i32 %18, 0
  br i1 %19, label %_Z20ImParseFormatFindEndPKc.exit, label %.thread.i

20:                                               ; preds = %.preheader.i
  %21 = add i8 %13, -97
  %or.cond5.i = icmp ult i8 %21, 26
  br i1 %or.cond5.i, label %22, label %.thread.i

22:                                               ; preds = %20
  %23 = add nsw i32 %12, -97
  %24 = shl nuw nsw i32 1, %23
  %25 = and i32 %24, 38275712
  %26 = icmp eq i32 %25, 0
  br i1 %26, label %_Z20ImParseFormatFindEndPKc.exit, label %.thread.i

.thread.i:                                        ; preds = %22, %20, %15
  %27 = getelementptr inbounds nuw i8, ptr %.02026.i, i64 1
  %.pr.i = load i8, ptr %27, align 1, !tbaa !341
  %28 = sext i8 %.pr.i to i32
  %.not22.i = icmp eq i8 %.pr.i, 0
  br i1 %.not22.i, label %_Z22ImParseFormatFindStartPKc.exit.thread, label %.preheader.i, !llvm.loop !352

_Z20ImParseFormatFindEndPKc.exit:                 ; preds = %22, %15
  %.019.i.ph = getelementptr inbounds nuw i8, ptr %.02026.i, i64 1
  %.pr14 = load i8, ptr %.019.i.ph, align 1, !tbaa !341
  %29 = icmp eq i8 %.pr14, 0
  br i1 %29, label %_Z22ImParseFormatFindStartPKc.exit.thread, label %30

30:                                               ; preds = %_Z20ImParseFormatFindEndPKc.exit
  %31 = ptrtoint ptr %.019.i.ph to i64
  %32 = ptrtoint ptr %.01125.i to i64
  %reass.sub = sub i64 %31, %32
  %33 = add i64 %reass.sub, 1
  %34 = tail call noundef i64 @llvm.umin.i64(i64 %33, i64 %2)
  tail call void @_Z9ImStrncpyPcPKcm(ptr noundef %1, ptr noundef nonnull %.01125.i, i64 noundef %34)
  br label %_Z22ImParseFormatFindStartPKc.exit.thread

_Z22ImParseFormatFindStartPKc.exit.thread:        ; preds = %9, %.thread.i, %3, %30, %_Z20ImParseFormatFindEndPKc.exit
  %.0 = phi ptr [ %1, %30 ], [ %.01125.i, %_Z20ImParseFormatFindEndPKc.exit ], [ @.str, %3 ], [ %.01125.i, %.thread.i ], [ @.str, %9 ]
  ret ptr %.0
}